; Function Attrs: mustprogress uwtable
define hidden noundef range(i32 -1, 1) i32 @_ZN5zxing11UnicomBlock11GetMinPointEiiRiS1_(ptr noundef nonnull align 8 captures(none) dereferenceable(160) %0, i32 noundef %1, i32 noundef %2, ptr noundef nonnull writeonly align 4 captures(none) dereferenceable(4) %3, ptr noundef nonnull writeonly align 4 captures(none) dereferenceable(4) %4) local_unnamed_addr #3 align 2 {
  %6 = getelementptr inbounds nuw i8, ptr %0, i64 12
  %7 = load i32, ptr %6, align 4, !tbaa !10
  %.not = icmp slt i32 %1, %7
  br i1 %.not, label %8, label %39

8:                                                ; preds = %5
  %9 = getelementptr inbounds nuw i8, ptr %0, i64 16
  %10 = load i32, ptr %9, align 8, !tbaa !25
  %.not22 = icmp slt i32 %2, %10
  br i1 %.not22, label %11, label %39

11:                                               ; preds = %8
  %12 = getelementptr inbounds nuw i8, ptr %0, i64 32
  %13 = mul nsw i32 %10, %1
  %14 = add nsw i32 %13, %2
  %15 = sext i32 %14 to i64
  %16 = load ptr, ptr %12, align 8, !tbaa !29
  %17 = getelementptr inbounds nuw i32, ptr %16, i64 %15
  %18 = load i32, ptr %17, align 4, !tbaa !32
  %.not23 = icmp eq i32 %18, 0
  br i1 %.not23, label %23, label %19

19:                                               ; preds = %11
  %20 = getelementptr inbounds nuw i8, ptr %0, i64 80
  %21 = load ptr, ptr %20, align 8, !tbaa !28
  %22 = getelementptr inbounds nuw i32, ptr %21, i64 %15
  br label %.sink.split

23:                                               ; preds = %11
  tail call void @_ZN5zxing11UnicomBlock3BfsEii(ptr noundef nonnull align 8 dereferenceable(160) %0, i32 noundef %1, i32 noundef %2)
  %24 = getelementptr inbounds nuw i8, ptr %0, i64 80
  %25 = load i32, ptr %9, align 8, !tbaa !25
  %26 = mul nsw i32 %25, %1
  %27 = add nsw i32 %26, %2
  %28 = sext i32 %27 to i64
  %29 = load ptr, ptr %24, align 8, !tbaa !28
  %30 = getelementptr inbounds nuw i32, ptr %29, i64 %28
  br label %.sink.split

.sink.split:                                      ; preds = %19, %23
  %.sink28.in = phi ptr [ %30, %23 ], [ %22, %19 ]
  %.sink25 = phi ptr [ %29, %23 ], [ %21, %19 ]
  %.sink28 = load i32, ptr %.sink28.in, align 4, !tbaa !32
  %31 = ashr i32 %.sink28, 16
  store i32 %31, ptr %3, align 4, !tbaa !32
  %32 = load i32, ptr %9, align 8, !tbaa !25
  %33 = mul nsw i32 %32, %1
  %34 = add nsw i32 %33, %2
  %35 = sext i32 %34 to i64
  %36 = getelementptr inbounds nuw i32, ptr %.sink25, i64 %35
  %37 = load i32, ptr %36, align 4, !tbaa !32
  %38 = and i32 %37, 65535
  store i32 %38, ptr %4, align 4, !tbaa !32
  br label %39

39:                                               ; preds = %.sink.split, %5, %8
  %.0 = phi i32 [ -1, %8 ], [ -1, %5 ], [ 0, %.sink.split ]
  ret i32 %.0
}